; Function Attrs: nounwind sspstrong uwtable
define internal i64 @ossl_digest_finish(i64 noundef %0) #0 {
  %2 = tail call ptr @rb_check_typeddata(i64 noundef %0, ptr noundef nonnull @ossl_digest_type) #4
  %.not = icmp eq ptr %2, null
  br i1 %.not, label %3, label %5

3:                                                ; preds = %1
  %4 = load i64, ptr @rb_eRuntimeError, align 8, !tbaa !6
  tail call void (i64, ptr, ...) @ossl_raise(i64 noundef %4, ptr noundef nonnull @.str.1) #5
  unreachable

5:                                                ; preds = %1
  %6 = tail call ptr @EVP_MD_CTX_get0_md(ptr noundef nonnull %2) #4
  %7 = tail call i32 @EVP_MD_get_size(ptr noundef %6) #4
  %8 = sext i32 %7 to i64
  %9 = tail call i64 @rb_str_new(ptr noundef null, i64 noundef %8) #4
  %10 = inttoptr i64 %9 to ptr
  %11 = load i64, ptr %10, align 8, !tbaa !10, !noalias !27
  %12 = and i64 %11, 8192
  %.not.i.i = icmp eq i64 %12, 0
  %13 = getelementptr inbounds nuw i8, ptr %10, i64 24
  br i1 %.not.i.i, label %RSTRING_PTR.exit, label %14

14:                                               ; preds = %5
  %.sroa.2.0.copyload.i = load ptr, ptr %13, align 8
  br label %RSTRING_PTR.exit

RSTRING_PTR.exit:                                 ; preds = %5, %14
  %.sroa.2.0.i = phi ptr [ %.sroa.2.0.copyload.i, %14 ], [ %13, %5 ]
  %15 = tail call i32 @EVP_DigestFinal_ex(ptr noundef nonnull %2, ptr noundef %.sroa.2.0.i, ptr noundef null) #4
  %.not5 = icmp eq i32 %15, 0
  br i1 %.not5, label %16, label %18

16:                                               ; preds = %RSTRING_PTR.exit
  %17 = load i64, ptr @eDigestError, align 8, !tbaa !6
  tail call void (i64, ptr, ...) @ossl_raise(i64 noundef %17, ptr noundef nonnull @.str.23) #5
  unreachable

18:                                               ; preds = %RSTRING_PTR.exit
  ret i64 %9
}